target datalayout = "e-m:e-p270:32:32-p271:32:32-p272:64:64-i64:64-i128:128-f80:128-n8:16:32:64-S128"
target triple = "x86_64-pc-linux-gnu"

%struct.FunctionCallInfoBaseData = type { ptr, ptr, ptr, i32, i8, i16, [0 x %struct.NullableDatum] }
%struct.NullableDatum = type { i64, i8 }
%struct.HeapTupleData = type { i32, %struct.ItemPointerData, i32, ptr }
%struct.ItemPointerData = type { %struct.BlockIdData, i16 }
%struct.BlockIdData = type { i16, i16 }

@.str.1 = private unnamed_addr constant [12 x i8] c"xlogfuncs.c\00", align 1
@.str.3 = private unnamed_addr constant [31 x i8] c"return type must be a row type\00", align 1
@wal_segment_size = external global i32, align 4
@.str.18 = private unnamed_addr constant [27 x i8] c"invalid WAL file name \22%s\22\00", align 1
@__func__.pg_split_walfile_name = private unnamed_addr constant [22 x i8] c"pg_split_walfile_name\00", align 1
@.str.19 = private unnamed_addr constant [4 x i8] c"%lu\00", align 1
@.str.39 = private unnamed_addr constant [13 x i8] c"%08X%08X%08X\00", align 1
@.str.40 = private unnamed_addr constant [17 x i8] c"0123456789ABCDEF\00", align 1

; Function Attrs: inlinehint nounwind uwtable
define internal i64 @PointerGetDatum(ptr noundef %0) #3 {
  %2 = alloca ptr, align 8
  store ptr %0, ptr %2, align 8
  %3 = load ptr, ptr %2, align 8
  %4 = ptrtoint ptr %3 to i64
  ret i64 %4
}

; Function Attrs: inlinehint nounwind uwtable
define internal i64 @HeapTupleGetDatum(ptr noundef %0) #3 {
  %2 = alloca ptr, align 8
  store ptr %0, ptr %2, align 8
  %3 = load ptr, ptr %2, align 8
  %4 = getelementptr inbounds nuw %struct.HeapTupleData, ptr %3, i32 0, i32 3
  %5 = load ptr, ptr %4, align 8
  %6 = call i64 @HeapTupleHeaderGetDatum(ptr noundef %5)
  ret i64 %6
}

; Function Attrs: inlinehint nounwind uwtable
define internal i64 @Int64GetDatum(i64 noundef %0) #3 {
  %2 = alloca i64, align 8
  store i64 %0, ptr %2, align 8
  %3 = load i64, ptr %2, align 8
  ret i64 %3
}

; Function Attrs: inlinehint nounwind uwtable
define internal i64 @Int32GetDatum(i32 noundef %0) #3 {
  %2 = alloca i32, align 4
  store i32 %0, ptr %2, align 4
  %3 = load i32, ptr %2, align 4
  %4 = sext i32 %3 to i64
  ret i64 %4
}

; Function Attrs: inlinehint nounwind uwtable
define internal i64 @ObjectIdGetDatum(i32 noundef %0) #3 {
  %2 = alloca i32, align 4
  store i32 %0, ptr %2, align 4
  %3 = load i32, ptr %2, align 4
  %4 = zext i32 %3 to i64
  ret i64 %4
}

; Function Attrs: inlinehint nounwind uwtable
define internal i64 @CStringGetDatum(ptr noundef %0) #3 {
  %2 = alloca ptr, align 8
  store ptr %0, ptr %2, align 8
  %3 = load ptr, ptr %2, align 8
  %4 = call i64 @PointerGetDatum(ptr noundef %3)
  ret i64 %4
}

; Function Attrs: inlinehint nounwind uwtable
define internal void @XLogFromFileName(ptr noundef %0, ptr noundef %1, ptr noundef %2, i32 noundef %3) #3 {
  %5 = alloca ptr, align 8
  %6 = alloca ptr, align 8
  %7 = alloca ptr, align 8
  %8 = alloca i32, align 4
  %9 = alloca i32, align 4
  %10 = alloca i32, align 4
  store ptr %0, ptr %5, align 8
  store ptr %1, ptr %6, align 8
  store ptr %2, ptr %7, align 8
  store i32 %3, ptr %8, align 4
  call void @llvm.lifetime.start.p0(i64 4, ptr %9) #9
  call void @llvm.lifetime.start.p0(i64 4, ptr %10) #9
  %11 = load ptr, ptr %5, align 8
  %12 = load ptr, ptr %6, align 8
  %13 = call i32 (ptr, ptr, ...) @__isoc99_sscanf(ptr noundef %11, ptr noundef @.str.39, ptr noundef %12, ptr noundef %9, ptr noundef %10) #9
  %14 = load i32, ptr %9, align 4
  %15 = zext i32 %14 to i64
  %16 = load i32, ptr %8, align 4
  %17 = sext i32 %16 to i64
  %18 = udiv i64 4294967296, %17
  %19 = mul i64 %15, %18
  %20 = load i32, ptr %10, align 4
  %21 = zext i32 %20 to i64
  %22 = add i64 %19, %21
  %23 = load ptr, ptr %7, align 8
  store i64 %22, ptr %23, align 8
  call void @llvm.lifetime.end.p0(i64 4, ptr %10) #9
  call void @llvm.lifetime.end.p0(i64 4, ptr %9) #9
  ret void
}

; Function Attrs: inlinehint nounwind uwtable
define internal zeroext i1 @IsXLogFileName(ptr noundef %0) #3 {
  %2 = alloca ptr, align 8
  store ptr %0, ptr %2, align 8
  %3 = load ptr, ptr %2, align 8
  %4 = call i64 @strlen(ptr noundef %3) #11
  %5 = icmp eq i64 %4, 24
  br i1 %5, label %6, label %10

6:                                                ; preds = %1
  %7 = load ptr, ptr %2, align 8
  %8 = call i64 @strspn(ptr noundef %7, ptr noundef @.str.40) #11
  %9 = icmp eq i64 %8, 24
  br label %10

10:                                               ; preds = %6, %1
  %11 = phi i1 [ false, %1 ], [ %9, %6 ]
  ret i1 %11
}

; Function Attrs: inlinehint nounwind uwtable
define internal ptr @DatumGetPointer(i64 noundef %0) #3 {
  %2 = alloca i64, align 8
  store i64 %0, ptr %2, align 8
  %3 = load i64, ptr %2, align 8
  %4 = inttoptr i64 %3 to ptr
  ret ptr %4
}

; Function Attrs: nounwind uwtable
define dso_local i64 @pg_split_walfile_name(ptr noundef %0) #0 {
  %2 = alloca ptr, align 8
  %3 = alloca ptr, align 8
  %4 = alloca ptr, align 8
  %5 = alloca ptr, align 8
  %6 = alloca i32, align 4
  %7 = alloca i64, align 8
  %8 = alloca [2 x i64], align 16
  %9 = alloca [2 x i8], align 1
  %10 = alloca ptr, align 8
  %11 = alloca ptr, align 8
  %12 = alloca [256 x i8], align 16
  %13 = alloca i64, align 8
  store ptr %0, ptr %2, align 8
  call void @llvm.lifetime.start.p0(i64 8, ptr %3) #9
  %14 = load ptr, ptr %2, align 8
  %15 = getelementptr inbounds nuw %struct.FunctionCallInfoBaseData, ptr %14, i32 0, i32 6
  %16 = getelementptr inbounds [0 x %struct.NullableDatum], ptr %15, i64 0, i64 0
  %17 = getelementptr inbounds nuw %struct.NullableDatum, ptr %16, i32 0, i32 0
  %18 = load i64, ptr %17, align 8
  %19 = call ptr @DatumGetPointer(i64 noundef %18)
  %20 = call ptr @pg_detoast_datum_packed(ptr noundef %19)
  %21 = call ptr @text_to_cstring(ptr noundef %20)
  store ptr %21, ptr %3, align 8
  call void @llvm.lifetime.start.p0(i64 8, ptr %4) #9
  call void @llvm.lifetime.start.p0(i64 8, ptr %5) #9
  call void @llvm.lifetime.start.p0(i64 4, ptr %6) #9
  call void @llvm.lifetime.start.p0(i64 8, ptr %7) #9
  call void @llvm.lifetime.start.p0(i64 16, ptr %8) #9
  call void @llvm.memset.p0.i64(ptr align 16 %8, i8 0, i64 16, i1 false)
  call void @llvm.lifetime.start.p0(i64 2, ptr %9) #9
  call void @llvm.memset.p0.i64(ptr align 1 %9, i8 0, i64 2, i1 false)
  call void @llvm.lifetime.start.p0(i64 8, ptr %10) #9
  call void @llvm.lifetime.start.p0(i64 8, ptr %11) #9
  call void @llvm.lifetime.start.p0(i64 256, ptr %12) #9
  call void @llvm.lifetime.start.p0(i64 8, ptr %13) #9
  %22 = load ptr, ptr %3, align 8
  %23 = call ptr @pstrdup(ptr noundef %22)
  store ptr %23, ptr %4, align 8
  %24 = load ptr, ptr %4, align 8
  store ptr %24, ptr %5, align 8
  br label %25

25:                                               ; preds = %34, %1
  %26 = load ptr, ptr %5, align 8
  %27 = load i8, ptr %26, align 1
  %28 = icmp ne i8 %27, 0
  br i1 %28, label %29, label %37

29:                                               ; preds = %25
  %30 = load ptr, ptr %5, align 8
  %31 = load i8, ptr %30, align 1
  %32 = call zeroext i8 @pg_toupper(i8 noundef zeroext %31)
  %33 = load ptr, ptr %5, align 8
  store i8 %32, ptr %33, align 1
  br label %34

34:                                               ; preds = %29
  %35 = load ptr, ptr %5, align 8
  %36 = getelementptr inbounds nuw i8, ptr %35, i32 1
  store ptr %36, ptr %5, align 8
  br label %25, !llvm.loop !6

37:                                               ; preds = %25
  %38 = load ptr, ptr %4, align 8
  %39 = call zeroext i1 @IsXLogFileName(ptr noundef %38)
  br i1 %39, label %53, label %40

40:                                               ; preds = %37
  br label %41

41:                                               ; preds = %40
  br i1 true, label %42, label %44

42:                                               ; preds = %41
  %43 = call zeroext i1 @errstart_cold(i32 noundef 21, ptr noundef null) #10
  br i1 %43, label %46, label %50

44:                                               ; preds = %41
  %45 = call zeroext i1 @errstart(i32 noundef 21, ptr noundef null)
  br i1 %45, label %46, label %50

46:                                               ; preds = %44, %42
  %47 = call i32 @errcode(i32 noundef 50856066)
  %48 = load ptr, ptr %3, align 8
  %49 = call i32 (ptr, ...) @errmsg(ptr noundef @.str.18, ptr noundef %48)
  call void @errfinish(ptr noundef @.str.1, i32 noundef 487, ptr noundef @__func__.pg_split_walfile_name)
  br label %50

50:                                               ; preds = %46, %44, %42
  unreachable

51:                                               ; No predecessors!
  br label %52

52:                                               ; preds = %51
  br label %53

53:                                               ; preds = %52, %37
  %54 = load ptr, ptr %4, align 8
  %55 = load i32, ptr @wal_segment_size, align 4
  call void @XLogFromFileName(ptr noundef %54, ptr noundef %6, ptr noundef %7, i32 noundef %55)
  %56 = load ptr, ptr %2, align 8
  %57 = call i32 @get_call_result_type(ptr noundef %56, ptr noundef null, ptr noundef %10)
  %58 = icmp ne i32 %57, 1
  br i1 %58, label %59, label %70

59:                                               ; preds = %53
  br label %60

60:                                               ; preds = %59
  br i1 true, label %61, label %63

61:                                               ; preds = %60
  %62 = call zeroext i1 @errstart_cold(i32 noundef 21, ptr noundef null) #10
  br i1 %62, label %65, label %67

63:                                               ; preds = %60
  %64 = call zeroext i1 @errstart(i32 noundef 21, ptr noundef null)
  br i1 %64, label %65, label %67

65:                                               ; preds = %63, %61
  %66 = call i32 (ptr, ...) @errmsg_internal(ptr noundef @.str.3)
  call void @errfinish(ptr noundef @.str.1, i32 noundef 492, ptr noundef @__func__.pg_split_walfile_name)
  br label %67

67:                                               ; preds = %65, %63, %61
  unreachable

68:                                               ; No predecessors!
  br label %69

69:                                               ; preds = %68
  br label %70

70:                                               ; preds = %69, %53
  %71 = getelementptr inbounds [256 x i8], ptr %12, i64 0, i64 0
  %72 = load i64, ptr %7, align 8
  %73 = call i32 (ptr, i64, ptr, ...) @pg_snprintf(ptr noundef %71, i64 noundef 256, ptr noundef @.str.19, i64 noundef %72)
  %74 = getelementptr inbounds [256 x i8], ptr %12, i64 0, i64 0
  %75 = call i64 @CStringGetDatum(ptr noundef %74)
  %76 = call i64 @ObjectIdGetDatum(i32 noundef 0)
  %77 = call i64 @Int32GetDatum(i32 noundef -1)
  %78 = call i64 @DirectFunctionCall3Coll(ptr noundef @numeric_in, i32 noundef 0, i64 noundef %75, i64 noundef %76, i64 noundef %77)
  %79 = getelementptr inbounds [2 x i64], ptr %8, i64 0, i64 0
  store i64 %78, ptr %79, align 16
  %80 = load i32, ptr %6, align 4
  %81 = zext i32 %80 to i64
  %82 = call i64 @Int64GetDatum(i64 noundef %81)
  %83 = getelementptr inbounds [2 x i64], ptr %8, i64 0, i64 1
  store i64 %82, ptr %83, align 8
  %84 = load ptr, ptr %10, align 8
  %85 = getelementptr inbounds [2 x i64], ptr %8, i64 0, i64 0
  %86 = getelementptr inbounds [2 x i8], ptr %9, i64 0, i64 0
  %87 = call ptr @heap_form_tuple(ptr noundef %84, ptr noundef %85, ptr noundef %86)
  store ptr %87, ptr %11, align 8
  %88 = load ptr, ptr %11, align 8
  %89 = call i64 @HeapTupleGetDatum(ptr noundef %88)
  store i64 %89, ptr %13, align 8
  %90 = load i64, ptr %13, align 8
  call void @llvm.lifetime.end.p0(i64 8, ptr %13) #9
  call void @llvm.lifetime.end.p0(i64 256, ptr %12) #9
  call void @llvm.lifetime.end.p0(i64 8, ptr %11) #9
  call void @llvm.lifetime.end.p0(i64 8, ptr %10) #9
  call void @llvm.lifetime.end.p0(i64 2, ptr %9) #9
  call void @llvm.lifetime.end.p0(i64 16, ptr %8) #9
  call void @llvm.lifetime.end.p0(i64 8, ptr %7) #9
  call void @llvm.lifetime.end.p0(i64 4, ptr %6) #9
  call void @llvm.lifetime.end.p0(i64 8, ptr %5) #9
  call void @llvm.lifetime.end.p0(i64 8, ptr %4) #9
  call void @llvm.lifetime.end.p0(i64 8, ptr %3) #9
  ret i64 %90
}