; Function Attrs: nounwind uwtable
define dso_local i64 @pg_split_walfile_name(ptr noundef %0) local_unnamed_addr #0 {
  %2 = alloca i32, align 4
  %3 = alloca i32, align 4
  %4 = alloca i32, align 4
  %5 = alloca [2 x i64], align 16
  %6 = alloca [2 x i8], align 2
  %7 = alloca ptr, align 8
  %8 = alloca [256 x i8], align 16
  %9 = getelementptr inbounds nuw i8, ptr %0, i64 32
  %10 = load i64, ptr %9, align 8
  %11 = inttoptr i64 %10 to ptr
  %12 = tail call ptr @pg_detoast_datum_packed(ptr noundef %11) #9
  %13 = tail call ptr @text_to_cstring(ptr noundef %12) #9
  call void @llvm.lifetime.start.p0(i64 4, ptr nonnull %4) #9
  call void @llvm.lifetime.start.p0(i64 16, ptr nonnull %5) #9
  call void @llvm.lifetime.start.p0(i64 2, ptr nonnull %6) #9
  store i16 0, ptr %6, align 2
  call void @llvm.lifetime.start.p0(i64 8, ptr nonnull %7) #9
  call void @llvm.lifetime.start.p0(i64 256, ptr nonnull %8) #9
  %14 = tail call ptr @pstrdup(ptr noundef %13) #9
  %15 = load i8, ptr %14, align 1
  %.not14 = icmp eq i8 %15, 0
  br i1 %.not14, label %._crit_edge, label %.lr.ph

.lr.ph:                                           ; preds = %1, %.lr.ph
  %16 = phi i8 [ %19, %.lr.ph ], [ %15, %1 ]
  %.015 = phi ptr [ %18, %.lr.ph ], [ %14, %1 ]
  %17 = tail call zeroext i8 @pg_toupper(i8 noundef zeroext %16) #9
  store i8 %17, ptr %.015, align 1
  %18 = getelementptr inbounds nuw i8, ptr %.015, i64 1
  %19 = load i8, ptr %18, align 1
  %.not = icmp eq i8 %19, 0
  br i1 %.not, label %._crit_edge, label %.lr.ph, !llvm.loop !4

._crit_edge:                                      ; preds = %.lr.ph, %1
  %20 = tail call i64 @strlen(ptr noundef nonnull readonly dereferenceable(1) %14) #11
  %21 = icmp eq i64 %20, 24
  br i1 %21, label %IsXLogFileName.exit, label %IsXLogFileName.exit.thread

IsXLogFileName.exit:                              ; preds = %._crit_edge
  %22 = tail call i64 @strspn(ptr noundef nonnull readonly %14, ptr noundef nonnull @.str.40) #11
  %23 = icmp eq i64 %22, 24
  br i1 %23, label %27, label %IsXLogFileName.exit.thread

IsXLogFileName.exit.thread:                       ; preds = %._crit_edge, %IsXLogFileName.exit
  %24 = tail call zeroext i1 @errstart_cold(i32 noundef 21, ptr noundef null) #10
  tail call void @llvm.assume(i1 %24)
  %25 = tail call i32 @errcode(i32 noundef 50856066) #9
  %26 = tail call i32 (ptr, ...) @errmsg(ptr noundef nonnull @.str.18, ptr noundef %13) #9
  tail call void @errfinish(ptr noundef nonnull @.str.1, i32 noundef 487, ptr noundef nonnull @__func__.pg_split_walfile_name) #9
  unreachable

27:                                               ; preds = %IsXLogFileName.exit
  %28 = load i32, ptr @wal_segment_size, align 4
  call void @llvm.lifetime.start.p0(i64 4, ptr nonnull %2) #9
  call void @llvm.lifetime.start.p0(i64 4, ptr nonnull %3) #9
  %29 = call i32 (ptr, ptr, ...) @__isoc99_sscanf(ptr noundef nonnull readonly %14, ptr noundef nonnull @.str.39, ptr noundef nonnull %4, ptr noundef nonnull %2, ptr noundef nonnull %3) #9
  %30 = load i32, ptr %2, align 4
  %31 = load i32, ptr %3, align 4
  call void @llvm.lifetime.end.p0(i64 4, ptr nonnull %3) #9
  call void @llvm.lifetime.end.p0(i64 4, ptr nonnull %2) #9
  %32 = call i32 @get_call_result_type(ptr noundef %0, ptr noundef null, ptr noundef nonnull %7) #9
  %.not13 = icmp eq i32 %32, 1
  br i1 %.not13, label %36, label %33

33:                                               ; preds = %27
  %34 = call zeroext i1 @errstart_cold(i32 noundef 21, ptr noundef null) #10
  call void @llvm.assume(i1 %34)
  %35 = call i32 (ptr, ...) @errmsg_internal(ptr noundef nonnull @.str.3) #9
  call void @errfinish(ptr noundef nonnull @.str.1, i32 noundef 492, ptr noundef nonnull @__func__.pg_split_walfile_name) #9
  unreachable

36:                                               ; preds = %27
  %37 = sext i32 %28 to i64
  %38 = udiv i64 4294967296, %37
  %39 = zext i32 %30 to i64
  %40 = mul nuw i64 %38, %39
  %41 = zext i32 %31 to i64
  %42 = add nuw i64 %40, %41
  %43 = call i32 (ptr, i64, ptr, ...) @pg_snprintf(ptr noundef nonnull %8, i64 noundef 256, ptr noundef nonnull @.str.19, i64 noundef %42) #9
  %44 = ptrtoint ptr %8 to i64
  %45 = call i64 @DirectFunctionCall3Coll(ptr noundef nonnull @numeric_in, i32 noundef 0, i64 noundef %44, i64 noundef 0, i64 noundef -1) #9
  store i64 %45, ptr %5, align 16
  %46 = load i32, ptr %4, align 4
  %47 = zext i32 %46 to i64
  %48 = getelementptr inbounds nuw i8, ptr %5, i64 8
  store i64 %47, ptr %48, align 8
  %49 = load ptr, ptr %7, align 8
  %50 = call ptr @heap_form_tuple(ptr noundef %49, ptr noundef nonnull %5, ptr noundef nonnull %6) #9
  %51 = getelementptr i8, ptr %50, i64 16
  %.val = load ptr, ptr %51, align 8
  %52 = call i64 @HeapTupleHeaderGetDatum(ptr noundef %.val) #9
  call void @llvm.lifetime.end.p0(i64 256, ptr nonnull %8) #9
  call void @llvm.lifetime.end.p0(i64 8, ptr nonnull %7) #9
  call void @llvm.lifetime.end.p0(i64 2, ptr nonnull %6) #9
  call void @llvm.lifetime.end.p0(i64 16, ptr nonnull %5) #9
  call void @llvm.lifetime.end.p0(i64 4, ptr nonnull %4) #9
  ret i64 %52
}